target datalayout = "e-m:e-p270:32:32-p271:32:32-p272:64:64-i64:64-i128:128-f80:128-n8:16:32:64-S128"
target triple = "x86_64-pc-linux-gnu"

%struct.gmx_parallel_3dfft = type { ptr, ptr }

@.str = private unnamed_addr constant [12 x i8] c"*pfft_setup\00", align 1
@.str.1 = private unnamed_addr constant [128 x i8] c"generated/home/dtcxzyw/WorkSpace/Projects/compilers/llvm-opt-benchmark/bench/gromacs/gromacs/src/gromacs/fft/parallel_3dfft.cpp\00", align 1

; Function Attrs: inlinehint mustprogress uwtable
define internal void @_ZL13gmx_snew_implI18gmx_parallel_3dfftEvPKcS2_iRPT_m(ptr noundef %0, ptr noundef %1, i32 noundef %2, ptr noundef nonnull align 8 dereferenceable(8) %3, i64 noundef %4) #2 {
  %6 = alloca ptr, align 8
  %7 = alloca ptr, align 8
  %8 = alloca i32, align 4
  %9 = alloca ptr, align 8
  %10 = alloca i64, align 8
  store ptr %0, ptr %6, align 8, !tbaa !34
  store ptr %1, ptr %7, align 8, !tbaa !34
  store i32 %2, ptr %8, align 4, !tbaa !20
  store ptr %3, ptr %9, align 8, !tbaa !4
  store i64 %4, ptr %10, align 8, !tbaa !36
  %11 = load ptr, ptr %6, align 8, !tbaa !34
  %12 = load ptr, ptr %7, align 8, !tbaa !34
  %13 = load i32, ptr %8, align 4, !tbaa !20
  %14 = load i64, ptr %10, align 8, !tbaa !36
  %15 = call noundef ptr @_Z11save_callocPKcS0_imm(ptr noundef %11, ptr noundef %12, i32 noundef %13, i64 noundef %14, i64 noundef 16)
  %16 = load ptr, ptr %9, align 8, !tbaa !4
  store ptr %15, ptr %16, align 8, !tbaa !28
  ret void
}

; Function Attrs: mustprogress uwtable
define noundef i32 @_Z23gmx_parallel_3dfft_initPP18gmx_parallel_3dfftPKiPPfPP9t_complexPP10tmpi_comm_biN3gmx13PinningPolicyE(ptr noundef %0, ptr noundef %1, ptr noundef %2, ptr noundef %3, ptr noundef %4, i1 noundef zeroext %5, i32 noundef %6, i32 noundef %7) #0 {
  %9 = alloca ptr, align 8
  %10 = alloca ptr, align 8
  %11 = alloca ptr, align 8
  %12 = alloca ptr, align 8
  %13 = alloca ptr, align 8
  %14 = alloca i8, align 1
  %15 = alloca i32, align 4
  %16 = alloca i32, align 4
  %17 = alloca i32, align 4
  %18 = alloca i32, align 4
  %19 = alloca i32, align 4
  %20 = alloca i32, align 4
  %21 = alloca [2 x ptr], align 16
  %22 = alloca i32, align 4
  %23 = alloca i32, align 4
  %24 = alloca i32, align 4
  %25 = alloca ptr, align 8
  %26 = alloca ptr, align 8
  store ptr %0, ptr %9, align 8, !tbaa !4
  store ptr %1, ptr %10, align 8, !tbaa !10
  store ptr %2, ptr %11, align 8, !tbaa !12
  store ptr %3, ptr %12, align 8, !tbaa !14
  store ptr %4, ptr %13, align 8, !tbaa !16
  %27 = zext i1 %5 to i8
  store i8 %27, ptr %14, align 1, !tbaa !18
  store i32 %6, ptr %15, align 4, !tbaa !20
  store i32 %7, ptr %16, align 4, !tbaa !22
  call void @llvm.lifetime.start.p0(i64 4, ptr %17) #12
  %28 = load ptr, ptr %10, align 8, !tbaa !10
  %29 = getelementptr inbounds i32, ptr %28, i64 2
  %30 = load i32, ptr %29, align 4, !tbaa !20
  store i32 %30, ptr %17, align 4, !tbaa !20
  call void @llvm.lifetime.start.p0(i64 4, ptr %18) #12
  %31 = load ptr, ptr %10, align 8, !tbaa !10
  %32 = getelementptr inbounds i32, ptr %31, i64 1
  %33 = load i32, ptr %32, align 4, !tbaa !20
  store i32 %33, ptr %18, align 4, !tbaa !20
  call void @llvm.lifetime.start.p0(i64 4, ptr %19) #12
  %34 = load ptr, ptr %10, align 8, !tbaa !10
  %35 = getelementptr inbounds i32, ptr %34, i64 0
  %36 = load i32, ptr %35, align 4, !tbaa !20
  store i32 %36, ptr %19, align 4, !tbaa !20
  call void @llvm.lifetime.start.p0(i64 4, ptr %20) #12
  store i32 5, ptr %20, align 4, !tbaa !20
  call void @llvm.lifetime.start.p0(i64 16, ptr %21) #12
  %37 = load ptr, ptr %13, align 8, !tbaa !16
  %38 = getelementptr inbounds ptr, ptr %37, i64 1
  %39 = load ptr, ptr %38, align 8, !tbaa !24
  store ptr %39, ptr %21, align 8, !tbaa !24
  %40 = getelementptr inbounds ptr, ptr %21, i64 1
  %41 = load ptr, ptr %13, align 8, !tbaa !16
  %42 = getelementptr inbounds ptr, ptr %41, i64 0
  %43 = load ptr, ptr %42, align 8, !tbaa !24
  store ptr %43, ptr %40, align 8, !tbaa !24
  call void @llvm.lifetime.start.p0(i64 4, ptr %22) #12
  call void @llvm.lifetime.start.p0(i64 4, ptr %23) #12
  call void @llvm.lifetime.start.p0(i64 4, ptr %24) #12
  call void @llvm.lifetime.start.p0(i64 8, ptr %25) #12
  call void @llvm.lifetime.start.p0(i64 8, ptr %26) #12
  %44 = load ptr, ptr %9, align 8, !tbaa !4
  call void @_ZL13gmx_snew_implI18gmx_parallel_3dfftEvPKcS2_iRPT_m(ptr noundef @.str, ptr noundef @.str.1, i32 noundef 71, ptr noundef nonnull align 8 dereferenceable(8) %44, i64 noundef 1)
  %45 = load i8, ptr %14, align 1, !tbaa !18, !range !26, !noundef !27
  %46 = trunc i8 %45 to i1
  br i1 %46, label %47, label %50

47:                                               ; preds = %8
  %48 = load i32, ptr %20, align 4, !tbaa !20
  %49 = or i32 %48, 16
  store i32 %49, ptr %20, align 4, !tbaa !20
  br label %50

50:                                               ; preds = %47, %8
  %51 = load i32, ptr %20, align 4, !tbaa !20
  %52 = and i32 %51, 1
  %53 = icmp ne i32 %52, 0
  br i1 %53, label %58, label %54

54:                                               ; preds = %50
  %55 = load i32, ptr %18, align 4, !tbaa !20
  store i32 %55, ptr %22, align 4, !tbaa !20
  %56 = load i32, ptr %19, align 4, !tbaa !20
  store i32 %56, ptr %23, align 4, !tbaa !20
  %57 = load i32, ptr %17, align 4, !tbaa !20
  store i32 %57, ptr %24, align 4, !tbaa !20
  br label %62

58:                                               ; preds = %50
  %59 = load i32, ptr %19, align 4, !tbaa !20
  store i32 %59, ptr %22, align 4, !tbaa !20
  %60 = load i32, ptr %17, align 4, !tbaa !20
  store i32 %60, ptr %23, align 4, !tbaa !20
  %61 = load i32, ptr %18, align 4, !tbaa !20
  store i32 %61, ptr %24, align 4, !tbaa !20
  br label %62

62:                                               ; preds = %58, %54
  %63 = load i32, ptr %17, align 4, !tbaa !20
  %64 = load i32, ptr %18, align 4, !tbaa !20
  %65 = load i32, ptr %19, align 4, !tbaa !20
  %66 = getelementptr inbounds [2 x ptr], ptr %21, i64 0, i64 0
  %67 = load i32, ptr %20, align 4, !tbaa !20
  %68 = load ptr, ptr %11, align 8, !tbaa !12
  %69 = load ptr, ptr %12, align 8, !tbaa !14
  %70 = load i32, ptr %15, align 4, !tbaa !20
  %71 = load i32, ptr %16, align 4, !tbaa !22
  %72 = call noundef ptr @_Z13fft5d_plan_3diiiPP10tmpi_comm_iPP9t_complexS4_S4_S4_iN3gmx13PinningPolicyE(i32 noundef %63, i32 noundef %64, i32 noundef %65, ptr noundef %66, i32 noundef %67, ptr noundef %68, ptr noundef %69, ptr noundef %25, ptr noundef %26, i32 noundef %70, i32 noundef %71)
  %73 = load ptr, ptr %9, align 8, !tbaa !4
  %74 = load ptr, ptr %73, align 8, !tbaa !28
  %75 = getelementptr inbounds nuw %struct.gmx_parallel_3dfft, ptr %74, i32 0, i32 0
  store ptr %72, ptr %75, align 8, !tbaa !30
  %76 = load i32, ptr %22, align 4, !tbaa !20
  %77 = load i32, ptr %23, align 4, !tbaa !20
  %78 = load i32, ptr %24, align 4, !tbaa !20
  %79 = getelementptr inbounds [2 x ptr], ptr %21, i64 0, i64 0
  %80 = load i32, ptr %20, align 4, !tbaa !20
  %81 = or i32 %80, 2
  %82 = or i32 %81, 64
  %83 = xor i32 %82, 1
  %84 = load ptr, ptr %12, align 8, !tbaa !14
  %85 = load ptr, ptr %11, align 8, !tbaa !12
  %86 = load i32, ptr %15, align 4, !tbaa !20
  %87 = call noundef ptr @_Z13fft5d_plan_3diiiPP10tmpi_comm_iPP9t_complexS4_S4_S4_iN3gmx13PinningPolicyE(i32 noundef %76, i32 noundef %77, i32 noundef %78, ptr noundef %79, i32 noundef %83, ptr noundef %84, ptr noundef %85, ptr noundef %25, ptr noundef %26, i32 noundef %86, i32 noundef 0)
  %88 = load ptr, ptr %9, align 8, !tbaa !4
  %89 = load ptr, ptr %88, align 8, !tbaa !28
  %90 = getelementptr inbounds nuw %struct.gmx_parallel_3dfft, ptr %89, i32 0, i32 1
  store ptr %87, ptr %90, align 8, !tbaa !33
  %91 = load ptr, ptr %9, align 8, !tbaa !4
  %92 = load ptr, ptr %91, align 8, !tbaa !28
  %93 = getelementptr inbounds nuw %struct.gmx_parallel_3dfft, ptr %92, i32 0, i32 0
  %94 = load ptr, ptr %93, align 8, !tbaa !30
  %95 = icmp ne ptr %94, null
  br i1 %95, label %96, label %102

96:                                               ; preds = %62
  %97 = load ptr, ptr %9, align 8, !tbaa !4
  %98 = load ptr, ptr %97, align 8, !tbaa !28
  %99 = getelementptr inbounds nuw %struct.gmx_parallel_3dfft, ptr %98, i32 0, i32 1
  %100 = load ptr, ptr %99, align 8, !tbaa !33
  %101 = icmp ne ptr %100, null
  br label %102

102:                                              ; preds = %96, %62
  %103 = phi i1 [ false, %62 ], [ %101, %96 ]
  %104 = zext i1 %103 to i32
  call void @llvm.lifetime.end.p0(i64 8, ptr %26) #12
  call void @llvm.lifetime.end.p0(i64 8, ptr %25) #12
  call void @llvm.lifetime.end.p0(i64 4, ptr %24) #12
  call void @llvm.lifetime.end.p0(i64 4, ptr %23) #12
  call void @llvm.lifetime.end.p0(i64 4, ptr %22) #12
  call void @llvm.lifetime.end.p0(i64 16, ptr %21) #12
  call void @llvm.lifetime.end.p0(i64 4, ptr %20) #12
  call void @llvm.lifetime.end.p0(i64 4, ptr %19) #12
  call void @llvm.lifetime.end.p0(i64 4, ptr %18) #12
  call void @llvm.lifetime.end.p0(i64 4, ptr %17) #12
  ret i32 %104
}