; Function Attrs: mustprogress uwtable
define noundef range(i32 0, 2) i32 @_Z23gmx_parallel_3dfft_initPP18gmx_parallel_3dfftPKiPPfPP9t_complexPP10tmpi_comm_biN3gmx13PinningPolicyE(ptr noundef captures(none) initializes((0, 8)) %0, ptr noundef readonly captures(none) %1, ptr noundef %2, ptr noundef %3, ptr noundef readonly captures(none) %4, i1 noundef zeroext %5, i32 noundef %6, i32 noundef %7) local_unnamed_addr #0 {
  %9 = alloca [2 x ptr], align 16
  %10 = alloca ptr, align 8
  %11 = alloca ptr, align 8
  %12 = getelementptr inbounds nuw i8, ptr %1, i64 8
  %13 = load i32, ptr %12, align 4, !tbaa !4
  %14 = getelementptr inbounds nuw i8, ptr %1, i64 4
  %15 = load i32, ptr %14, align 4, !tbaa !4
  %16 = load i32, ptr %1, align 4, !tbaa !4
  call void @llvm.lifetime.start.p0(i64 16, ptr nonnull %9) #11
  %17 = getelementptr inbounds nuw i8, ptr %4, i64 8
  %18 = load ptr, ptr %17, align 8, !tbaa !8
  store ptr %18, ptr %9, align 16, !tbaa !8
  %19 = getelementptr inbounds nuw i8, ptr %9, i64 8
  %20 = load ptr, ptr %4, align 8, !tbaa !8
  store ptr %20, ptr %19, align 8, !tbaa !8
  call void @llvm.lifetime.start.p0(i64 8, ptr nonnull %10) #11
  call void @llvm.lifetime.start.p0(i64 8, ptr nonnull %11) #11
  %21 = tail call noundef ptr @_Z11save_callocPKcS0_imm(ptr noundef nonnull @.str, ptr noundef nonnull @.str.1, i32 noundef 71, i64 noundef 1, i64 noundef 16)
  store ptr %21, ptr %0, align 8, !tbaa !11
  %spec.select = select i1 %5, i32 21, i32 5
  %22 = call noundef ptr @_Z13fft5d_plan_3diiiPP10tmpi_comm_iPP9t_complexS4_S4_S4_iN3gmx13PinningPolicyE(i32 noundef %13, i32 noundef %15, i32 noundef %16, ptr noundef nonnull %9, i32 noundef %spec.select, ptr noundef %2, ptr noundef %3, ptr noundef nonnull %10, ptr noundef nonnull %11, i32 noundef %6, i32 noundef %7)
  %23 = load ptr, ptr %0, align 8, !tbaa !11
  store ptr %22, ptr %23, align 8, !tbaa !13
  %24 = and i32 %spec.select, 20
  %25 = or disjoint i32 %24, 66
  %26 = call noundef ptr @_Z13fft5d_plan_3diiiPP10tmpi_comm_iPP9t_complexS4_S4_S4_iN3gmx13PinningPolicyE(i32 noundef %16, i32 noundef %13, i32 noundef %15, ptr noundef nonnull %9, i32 noundef %25, ptr noundef %3, ptr noundef %2, ptr noundef nonnull %10, ptr noundef nonnull %11, i32 noundef %6, i32 noundef 0)
  %27 = load ptr, ptr %0, align 8, !tbaa !11
  %28 = getelementptr inbounds nuw i8, ptr %27, i64 8
  store ptr %26, ptr %28, align 8, !tbaa !16
  %29 = load ptr, ptr %27, align 8, !tbaa !13
  %.not = icmp ne ptr %29, null
  %30 = icmp ne ptr %26, null
  %narrow = and i1 %30, %.not
  %31 = zext i1 %narrow to i32
  call void @llvm.lifetime.end.p0(i64 8, ptr nonnull %11) #11
  call void @llvm.lifetime.end.p0(i64 8, ptr nonnull %10) #11
  call void @llvm.lifetime.end.p0(i64 16, ptr nonnull %9) #11
  ret i32 %31
}